Certificate:
    Data:
        Version: 3 (0x2)
        Serial Number:
            f6:b1:e5:6c:8d:73:9c:22:b3:29:be:3a:d2:36:de:90
    Signature Algorithm: sha256WithRSAEncryption
        Issuer: CN=ChangeMe
        Validity
            Not Before: Sep 18 13:35:53 2019 GMT
            Not After : Sep  2 13:35:53 2022 GMT
        Subject: CN=client1.ntry.site
        Subject Public Key Info:
            Public Key Algorithm: rsaEncryption
                Public-Key: (2048 bit)
                Modulus:
                    00:c4:03:d4:49:b9:55:40:2a:6f:2e:b0:79:d0:49:
                    9b:5f:1c:ca:7a:7c:44:29:61:17:88:67:38:b6:32:
                    bc:5c:30:aa:af:09:1b:83:be:b1:ec:a3:a9:48:0d:
                    a4:52:94:2c:e3:70:55:5d:f5:d6:0a:a9:32:9b:7d:
                    c9:1b:fa:c5:6c:f8:17:9d:58:7d:49:09:88:2f:df:
                    0e:4f:ff:53:be:90:2c:fa:96:be:6e:42:ea:62:d3:
                    91:50:d0:9d:0e:90:8e:91:be:f7:9f:31:fe:30:ab:
                    60:6a:e5:a6:e8:01:53:38:a9:2c:33:cc:9b:cd:67:
                    e2:b6:6d:90:c5:02:3d:c2:6b:52:81:e3:b3:f2:0a:
                    a5:8b:0f:4c:1a:ca:48:3f:9a:bf:03:c2:14:20:31:
                    b5:38:ca:e2:f7:70:48:f9:5f:07:32:87:14:59:78:
                    09:cb:a0:d2:cc:04:43:7f:8d:fd:3a:90:87:5f:96:
                    7f:b8:67:5b:7a:aa:a9:ed:98:ce:0b:45:b2:94:69:
                    96:ed:c9:15:65:91:cb:e2:11:08:a7:88:9d:47:49:
                    f6:7a:31:11:3a:53:6e:66:dc:38:a6:03:a6:03:b1:
                    6b:88:9a:12:ca:ad:71:f0:85:79:a7:cd:e2:ae:c5:
                    75:28:4d:43:eb:ba:f8:04:85:d0:58:1a:a8:72:47:
                    c6:11
                Exponent: 65537 (0x10001)
        X509v3 extensions:
            X509v3 Basic Constraints: 
                CA:FALSE
            X509v3 Subject Key Identifier: 
                47:BD:82:0D:AA:3E:DA:02:F5:17:F1:9D:46:3B:75:B4:86:16:A3:4E
            X509v3 Authority Key Identifier: 
                keyid:75:37:B9:61:5C:7F:A5:1A:80:FC:26:F0:38:19:F6:91:AD:78:1D:12
                DirName:/CN=ChangeMe
                serial:A5:20:50:9A:A5:E8:C1:F8

            X509v3 Extended Key Usage: 
                TLS Web Client Authentication
            X509v3 Key Usage: 
                Digital Signature
    Signature Algorithm: sha256WithRSAEncryption
         9e:82:a0:1d:99:65:e5:b6:4f:fd:52:ef:fc:87:f6:2f:51:7a:
         02:27:48:79:5b:f2:0e:36:7a:c0:d1:ba:30:d1:d7:2f:2c:93:
         b3:98:66:31:a3:87:10:0f:6c:a4:bf:79:2a:a2:e7:ce:c4:cd:
         d4:93:4f:7c:7d:79:70:21:b5:f6:6b:8b:07:ef:5c:3e:f3:19:
         87:a2:c0:dd:95:0a:9e:b6:ed:a5:6e:75:6b:08:35:86:e0:01:
         6c:8c:a5:0c:0d:65:b0:8a:2d:0e:60:39:e5:80:ab:5c:b9:db:
         78:30:6e:ed:ed:c9:19:16:ea:00:fd:85:ee:be:b7:50:e6:1e:
         5c:db:53:f3:80:8f:0d:ec:c0:0b:ae:5e:b9:fb:b7:96:2d:00:
         a8:f2:36:c1:41:67:21:9c:b3:ba:aa:70:b9:ea:39:c2:f3:a3:
         2b:39:8b:d4:e2:0b:c3:b5:e4:dd:78:99:8a:66:c0:ae:b2:13:
         9d:fc:90:dd:18:56:13:f4:06:38:1b:2e:86:52:b8:21:2e:9c:
         7d:49:31:5c:c5:d2:a8:73:67:24:d9:60:5b:7f:63:4a:f5:2a:
         7e:59:c1:5f:38:b2:c3:7c:4a:7a:f2:48:a0:c1:be:c0:55:8f:
         0a:9b:74:18:67:e6:94:45:7e:d8:76:3e:52:b4:8a:14:9c:41:
         91:02:f9:6b
-----BEGIN CERTIFICATE-----
MIIDTzCCAjegAwIBAgIRAPax5WyNc5wisym+OtI23pAwDQYJKoZIhvcNAQELBQAw
EzERMA8GA1UEAwwIQ2hhbmdlTWUwHhcNMTkwOTE4MTMzNTUzWhcNMjIwOTAyMTMz
NTUzWjAcMRowGAYDVQQDDBFjbGllbnQxLm50cnkuc2l0ZTCCASIwDQYJKoZIhvcN
AQEBBQADggEPADCCAQoCggEBAMQD1Em5VUAqby6wedBJm18cynp8RClhF4hnOLYy
vFwwqq8JG4O+seyjqUgNpFKULONwVV311gqpMpt9yRv6xWz4F51YfUkJiC/fDk//
U76QLPqWvm5C6mLTkVDQnQ6QjpG+958x/jCrYGrlpugBUzipLDPMm81n4rZtkMUC
PcJrUoHjs/IKpYsPTBrKSD+avwPCFCAxtTjK4vdwSPlfBzKHFFl4Ccug0swEQ3+N
/TqQh1+Wf7hnW3qqqe2YzgtFspRplu3JFWWRy+IRCKeInUdJ9noxETpTbmbcOKYD
pgOxa4iaEsqtcfCFeafN4q7FdShNQ+u6+ASF0FgaqHJHxhECAwEAAaOBlDCBkTAJ
BgNVHRMEAjAAMB0GA1UdDgQWBBRHvYINqj7aAvUX8Z1GO3W0hhajTjBDBgNVHSME
PDA6gBR1N7lhXH+lGoD8JvA4GfaRrXgdEqEXpBUwEzERMA8GA1UEAwwIQ2hhbmdl
TWWCCQClIFCapejB+DATBgNVHSUEDDAKBggrBgEFBQcDAjALBgNVHQ8EBAMCB4Aw
DQYJKoZIhvcNAQELBQADggEBAJ6CoB2ZZeW2T/1S7/yH9i9RegInSHlb8g42esDR
ujDR1y8sk7OYZjGjhxAPbKS/eSqi587EzdSTT3x9eXAhtfZriwfvXD7zGYeiwN2V
Cp627aVudWsINYbgAWyMpQwNZbCKLQ5gOeWAq1y523gwbu3tyRkW6gD9he6+t1Dm
HlzbU/OAjw3swAuuXrn7t5YtAKjyNsFBZyGcs7qqcLnqOcLzoys5i9TiC8O15N14
mYpmwK6yE538kN0YVhP0BjgbLoZSuCEunH1JMVzF0qhzZyTZYFt/Y0r1Kn5ZwV84
ssN8SnrySKDBvsBVjwqbdBhn5pRFfth2PlK0ihScQZEC+Ws=
-----END CERTIFICATE-----
