Certificate:
    Data:
        Version: 3 (0x2)
        Serial Number:
            b8:ac:e9:55:08:e7:06:95:b8:3d:ec:49:0a:4f:f4:29
    Signature Algorithm: sha256WithRSAEncryption
        Issuer: CN=ChangeMe
        Validity
            Not Before: Sep 18 13:35:53 2019 GMT
            Not After : Sep  2 13:35:53 2022 GMT
        Subject: CN=server
        Subject Public Key Info:
            Public Key Algorithm: rsaEncryption
                Public-Key: (2048 bit)
                Modulus:
                    00:d4:f5:9d:6d:7c:b6:0a:06:91:73:55:2f:01:5d:
                    e4:3e:4b:1b:f7:15:6c:ad:d2:3e:ac:48:0d:65:00:
                    4c:35:d9:e7:14:ff:1c:ba:92:41:6f:1e:dd:89:f4:
                    7b:be:a9:b0:79:73:d2:e4:fc:9c:18:5e:5a:27:2e:
                    78:e7:93:6b:a2:f7:7c:d3:80:b3:47:8f:98:7a:9e:
                    92:e9:73:de:12:eb:c5:78:01:d1:41:9c:fe:a8:83:
                    42:bb:64:99:ae:66:7d:88:de:47:45:a4:86:c7:e9:
                    9f:08:8e:84:ca:87:d4:a4:08:a7:f1:55:e2:6c:ae:
                    33:a0:ce:f6:e0:42:cc:fa:1c:e4:86:c4:7f:c1:20:
                    f9:ad:46:31:0d:a5:e8:17:87:94:5c:6d:64:32:8b:
                    0e:e5:f1:2a:0c:e5:aa:39:cd:6f:b2:5f:33:1d:88:
                    95:fd:3c:f7:7b:fe:d1:98:e4:48:82:42:83:00:8c:
                    62:b1:c0:c3:48:0c:ff:c2:3e:a3:e6:30:29:43:8f:
                    5f:55:9a:80:ad:0e:ea:c6:a9:be:6f:1c:0c:14:4b:
                    ff:d8:11:36:b0:e9:ae:bd:7f:f3:e6:40:ae:cb:25:
                    2d:27:9f:63:da:c9:9f:dc:98:d5:ab:e8:31:77:7a:
                    34:9d:71:e5:33:57:15:42:0e:f6:59:72:ef:e9:d7:
                    50:f5
                Exponent: 65537 (0x10001)
        X509v3 extensions:
            X509v3 Basic Constraints: 
                CA:FALSE
            X509v3 Subject Key Identifier: 
                01:BA:55:F1:27:6B:C3:D7:CC:FC:C2:0F:04:AF:5C:97:C4:05:04:5F
            X509v3 Authority Key Identifier: 
                keyid:75:37:B9:61:5C:7F:A5:1A:80:FC:26:F0:38:19:F6:91:AD:78:1D:12
                DirName:/CN=ChangeMe
                serial:A5:20:50:9A:A5:E8:C1:F8

            X509v3 Extended Key Usage: 
                TLS Web Server Authentication
            X509v3 Key Usage: 
                Digital Signature, Key Encipherment
            X509v3 Subject Alternative Name: 
                DNS:server
    Signature Algorithm: sha256WithRSAEncryption
         8b:bc:26:df:4b:d3:f2:ef:d5:d8:1e:2a:7e:04:c1:a8:fc:1c:
         19:f3:79:ed:91:c8:c8:58:e3:76:ae:b7:e6:ef:f3:c6:02:37:
         e6:be:3e:ca:88:61:10:52:02:62:73:a1:d7:2a:e2:ac:ba:c3:
         74:f1:c7:5e:44:9a:72:15:11:4c:0e:a1:b8:57:0e:fc:fc:1c:
         58:fb:db:50:fc:9d:24:f9:5b:25:44:ca:ec:f3:f6:32:f2:7b:
         cf:14:44:7d:9d:11:b7:6e:9f:43:e3:7c:44:9b:2b:d8:e6:84:
         b0:73:42:06:3d:df:98:e0:3d:b5:c3:ab:16:2f:29:97:6d:74:
         6c:d1:63:50:a2:e7:59:3c:30:d9:24:ea:f6:d3:f0:6a:ee:4f:
         f8:13:87:fe:d6:9c:49:6a:07:b8:c4:3a:66:4a:cb:a4:c4:76:
         d7:e5:31:59:d5:7a:78:21:84:e5:ad:d4:1a:87:08:8d:00:57:
         39:c2:3c:3d:8b:7a:d1:f1:1f:d7:9c:f6:f1:3c:4b:31:82:11:
         92:d4:b9:5d:a9:1d:36:c8:76:51:55:51:d6:68:2f:59:24:25:
         7d:de:f3:e9:1f:4c:54:8d:da:17:bb:e7:a2:57:46:12:11:0d:
         46:7d:15:4a:e9:86:e8:69:70:9e:fe:61:82:dd:77:af:7f:db:
         85:2f:57:68
-----BEGIN CERTIFICATE-----
MIIDVzCCAj+gAwIBAgIRALis6VUI5waVuD3sSQpP9CkwDQYJKoZIhvcNAQELBQAw
EzERMA8GA1UEAwwIQ2hhbmdlTWUwHhcNMTkwOTE4MTMzNTUzWhcNMjIwOTAyMTMz
NTUzWjARMQ8wDQYDVQQDDAZzZXJ2ZXIwggEiMA0GCSqGSIb3DQEBAQUAA4IBDwAw
ggEKAoIBAQDU9Z1tfLYKBpFzVS8BXeQ+Sxv3FWyt0j6sSA1lAEw12ecU/xy6kkFv
Ht2J9Hu+qbB5c9Lk/JwYXlonLnjnk2ui93zTgLNHj5h6npLpc94S68V4AdFBnP6o
g0K7ZJmuZn2I3kdFpIbH6Z8IjoTKh9SkCKfxVeJsrjOgzvbgQsz6HOSGxH/BIPmt
RjENpegXh5RcbWQyiw7l8SoM5ao5zW+yXzMdiJX9PPd7/tGY5EiCQoMAjGKxwMNI
DP/CPqPmMClDj19VmoCtDurGqb5vHAwUS//YETaw6a69f/PmQK7LJS0nn2PayZ/c
mNWr6DF3ejSdceUzVxVCDvZZcu/p11D1AgMBAAGjgacwgaQwCQYDVR0TBAIwADAd
BgNVHQ4EFgQUAbpV8Sdrw9fM/MIPBK9cl8QFBF8wQwYDVR0jBDwwOoAUdTe5YVx/
pRqA/CbwOBn2ka14HRKhF6QVMBMxETAPBgNVBAMMCENoYW5nZU1lggkApSBQmqXo
wfgwEwYDVR0lBAwwCgYIKwYBBQUHAwEwCwYDVR0PBAQDAgWgMBEGA1UdEQQKMAiC
BnNlcnZlcjANBgkqhkiG9w0BAQsFAAOCAQEAi7wm30vT8u/V2B4qfgTBqPwcGfN5
7ZHIyFjjdq635u/zxgI35r4+yohhEFICYnOh1yrirLrDdPHHXkSachURTA6huFcO
/PwcWPvbUPydJPlbJUTK7PP2MvJ7zxREfZ0Rt26fQ+N8RJsr2OaEsHNCBj3fmOA9
tcOrFi8pl210bNFjUKLnWTww2STq9tPwau5P+BOH/tacSWoHuMQ6ZkrLpMR21+Ux
WdV6eCGE5a3UGocIjQBXOcI8PYt60fEf15z28TxLMYIRktS5XakdNsh2UVVR1mgv
WSQlfd7z6R9MVI3aF7vnoldGEhENRn0VSumG6Glwnv5hgt13r3/bhS9XaA==
-----END CERTIFICATE-----
